; ModuleID = '43/310.c'
source_filename = "43/310.c"
target datalayout = "e-m:e-p270:32:32-p271:32:32-p272:64:64-i64:64-f80:128-n8:16:32:64-S128"
target triple = "x86_64-pc-linux-gnu"

@.str = private unnamed_addr constant [3 x i8] c"%d\00", align 1
@.str.1 = private unnamed_addr constant [7 x i8] c"%d %d\0A\00", align 1

; Function Attrs: noinline nounwind uwtable
define dso_local i32 @main(i32 %0, i8** %1) #0 {
  %3 = alloca i32, align 4
  %4 = alloca i32, align 4
  %5 = alloca i8**, align 8
  %6 = alloca i32, align 4
  %7 = alloca i32, align 4
  %8 = alloca i32, align 4
  %9 = alloca i32, align 4
  %10 = alloca i32, align 4
  store i32 0, i32* %3, align 4
  store i32 %0, i32* %4, align 4
  store i8** %1, i8*** %5, align 8
  %11 = call i32 (i8*, ...) @__isoc99_scanf(i8* getelementptr inbounds ([3 x i8], [3 x i8]* @.str, i64 0, i64 0), i32* %6)
  store i32 3, i32* %7, align 4
  br label %12

12:                                               ; preds = %62, %2
  %13 = load i32, i32* %7, align 4
  %14 = load i32, i32* %6, align 4
  %15 = sdiv i32 %14, 2
  %16 = icmp sle i32 %13, %15
  br i1 %16, label %17, label %65

17:                                               ; preds = %12
  store i32 1, i32* %10, align 4
  store i32 2, i32* %8, align 4
  br label %18

18:                                               ; preds = %29, %17
  %19 = load i32, i32* %8, align 4
  %20 = load i32, i32* %7, align 4
  %21 = icmp slt i32 %19, %20
  br i1 %21, label %22, label %32

22:                                               ; preds = %18
  %23 = load i32, i32* %7, align 4
  %24 = load i32, i32* %8, align 4
  %25 = srem i32 %23, %24
  %26 = icmp eq i32 %25, 0
  br i1 %26, label %27, label %28

27:                                               ; preds = %22
  store i32 0, i32* %10, align 4
  br label %28

28:                                               ; preds = %27, %22
  br label %29

29:                                               ; preds = %28
  %30 = load i32, i32* %8, align 4
  %31 = add nsw i32 %30, 1
  store i32 %31, i32* %8, align 4
  br label %18

32:                                               ; preds = %18
  %33 = load i32, i32* %10, align 4
  %34 = icmp eq i32 %33, 1
  br i1 %34, label %35, label %61

35:                                               ; preds = %32
  %36 = load i32, i32* %6, align 4
  %37 = load i32, i32* %7, align 4
  %38 = sub nsw i32 %36, %37
  store i32 %38, i32* %9, align 4
  store i32 2, i32* %8, align 4
  br label %39

39:                                               ; preds = %50, %35
  %40 = load i32, i32* %8, align 4
  %41 = load i32, i32* %9, align 4
  %42 = icmp slt i32 %40, %41
  br i1 %42, label %43, label %53

43:                                               ; preds = %39
  %44 = load i32, i32* %9, align 4
  %45 = load i32, i32* %8, align 4
  %46 = srem i32 %44, %45
  %47 = icmp eq i32 %46, 0
  br i1 %47, label %48, label %49

48:                                               ; preds = %43
  store i32 0, i32* %10, align 4
  br label %49

49:                                               ; preds = %48, %43
  br label %50

50:                                               ; preds = %49
  %51 = load i32, i32* %8, align 4
  %52 = add nsw i32 %51, 1
  store i32 %52, i32* %8, align 4
  br label %39

53:                                               ; preds = %39
  %54 = load i32, i32* %10, align 4
  %55 = icmp eq i32 %54, 1
  br i1 %55, label %56, label %60

56:                                               ; preds = %53
  %57 = load i32, i32* %7, align 4
  %58 = load i32, i32* %9, align 4
  %59 = call i32 (i8*, ...) @printf(i8* getelementptr inbounds ([7 x i8], [7 x i8]* @.str.1, i64 0, i64 0), i32 %57, i32 %58)
  br label %60

60:                                               ; preds = %56, %53
  br label %61

61:                                               ; preds = %60, %32
  br label %62

62:                                               ; preds = %61
  %63 = load i32, i32* %7, align 4
  %64 = add nsw i32 %63, 2
  store i32 %64, i32* %7, align 4
  br label %12

65:                                               ; preds = %12
  ret i32 0
}

declare dso_local i32 @__isoc99_scanf(i8*, ...) #1

declare dso_local i32 @printf(i8*, ...) #1


!llvm.module.flags = !{!0}
!llvm.ident = !{!1}

!0 = !{i32 1, !"wchar_size", i32 4}
!1 = !{!"clang version 10.0.0-4ubuntu1 "}
